; Function Attrs: mustprogress uwtable
define void @_ZN5Ipopt7JournalC2ERKNSt7__cxx1112basic_stringIcSt11char_traitsIcESaIcEEENS_13EJournalLevelE(ptr noundef nonnull align 8 dereferenceable(176) %0, ptr noundef nonnull align 8 dereferenceable(32) %1, i32 noundef %2) unnamed_addr #3 align 2 personality ptr @__gxx_personality_v0 {
  %4 = getelementptr inbounds i8, ptr %0, i64 8
  store i32 0, ptr %4, align 8
  store ptr getelementptr inbounds ({ [14 x ptr] }, ptr @_ZTVN5Ipopt7JournalE, i64 0, i32 0, i64 2), ptr %0, align 8
  %5 = getelementptr inbounds i8, ptr %0, i64 16
  invoke void @_ZNSt7__cxx1112basic_stringIcSt11char_traitsIcESaIcEEC1ERKS4_(ptr noundef nonnull align 8 dereferenceable(32) %5, ptr noundef nonnull align 8 dereferenceable(32) %1)
          to label %.preheader unwind label %9

.preheader:                                       ; preds = %3
  %6 = getelementptr inbounds i8, ptr %0, i64 48
  br label %7

7:                                                ; preds = %.preheader, %7
  %indvars.iv = phi i64 [ 0, %.preheader ], [ %indvars.iv.next, %7 ]
  %8 = getelementptr inbounds [32 x i32], ptr %6, i64 0, i64 %indvars.iv
  store i32 %2, ptr %8, align 4
  %indvars.iv.next = add nuw nsw i64 %indvars.iv, 1
  %exitcond.not = icmp eq i64 %indvars.iv.next, 32
  br i1 %exitcond.not, label %11, label %7, !llvm.loop !15

9:                                                ; preds = %3
  %10 = landingpad { ptr, i32 }
          cleanup
  store ptr getelementptr inbounds ({ [4 x ptr] }, ptr @_ZTVN5Ipopt16ReferencedObjectE, i64 0, i32 0, i64 2), ptr %0, align 8
  resume { ptr, i32 } %10

11:                                               ; preds = %7
  ret void
}